target datalayout = "e-m:e-p270:32:32-p271:32:32-p272:64:64-i64:64-i128:128-f80:128-n8:16:32:64-S128"
target triple = "x86_64-pc-linux-gnu"

%struct.RString = type { %struct.RBasic, i64, %union.anon }
%struct.RBasic = type { i64, i64 }
%union.anon = type { %struct.anon.0 }
%struct.anon.0 = type { ptr, %union.anon.1 }
%union.anon.1 = type { i64 }
%struct.anon.2 = type { [1 x i8] }

@rb_eArgError = external global i64, align 8
@.str.11 = private unnamed_addr constant [31 x i8] c"Linux abstract socket too long\00", align 1

; Function Attrs: inlinehint nounwind sspstrong willreturn memory(read) uwtable
define internal i64 @RB_FL_TEST_RAW(i64 noundef %0, i64 noundef %1) #13 {
  %3 = alloca i64, align 8
  %4 = alloca i64, align 8
  store i64 %0, ptr %3, align 8, !tbaa !31
  store i64 %1, ptr %4, align 8, !tbaa !31
  %5 = load i64, ptr %3, align 8, !tbaa !31
  %6 = inttoptr i64 %5 to ptr
  %7 = getelementptr inbounds nuw %struct.RBasic, ptr %6, i32 0, i32 0
  %8 = load i64, ptr %7, align 8, !tbaa !178
  %9 = load i64, ptr %4, align 8, !tbaa !31
  %10 = and i64 %8, %9
  ret i64 %10
}

; Function Attrs: inlinehint nounwind sspstrong willreturn memory(read) uwtable
define internal zeroext i1 @RB_FL_ANY_RAW(i64 noundef %0, i64 noundef %1) #13 {
  %3 = alloca i64, align 8
  %4 = alloca i64, align 8
  store i64 %0, ptr %3, align 8, !tbaa !31
  store i64 %1, ptr %4, align 8, !tbaa !31
  %5 = load i64, ptr %3, align 8, !tbaa !31
  %6 = load i64, ptr %4, align 8, !tbaa !31
  %7 = call i64 @RB_FL_TEST_RAW(i64 noundef %5, i64 noundef %6) #30
  %8 = icmp ne i64 %7, 0
  ret i1 %8
}

; Function Attrs: inlinehint nounwind sspstrong uwtable
define internal i32 @rb_long2int_inline(i64 noundef %0) #5 {
  %2 = alloca i64, align 8
  %3 = alloca i32, align 4
  store i64 %0, ptr %2, align 8, !tbaa !31
  call void @llvm.lifetime.start.p0(i64 4, ptr %3) #24
  %4 = load i64, ptr %2, align 8, !tbaa !31
  %5 = trunc i64 %4 to i32
  store i32 %5, ptr %3, align 4, !tbaa !27
  %6 = load i32, ptr %3, align 4, !tbaa !27
  %7 = sext i32 %6 to i64
  %8 = load i64, ptr %2, align 8, !tbaa !31
  %9 = icmp ne i64 %7, %8
  br i1 %9, label %10, label %12

10:                                               ; preds = %1
  %11 = load i64, ptr %2, align 8, !tbaa !31
  call void @rb_out_of_int(i64 noundef %11) #33
  unreachable

12:                                               ; preds = %1
  %13 = load i32, ptr %3, align 4, !tbaa !27
  call void @llvm.lifetime.end.p0(i64 4, ptr %3) #24
  ret i32 %13
}

; Function Attrs: inlinehint nounwind sspstrong willreturn memory(read, argmem: readwrite) uwtable
define internal void @rbimpl_rstring_getmem(ptr dead_on_unwind noalias writable sret(%struct.RString) align 8 %0, i64 noundef %1) #7 {
  %3 = alloca i64, align 8
  store i64 %1, ptr %3, align 8, !tbaa !31
  %4 = load i64, ptr %3, align 8, !tbaa !31
  %5 = call zeroext i1 @RB_FL_ANY_RAW(i64 noundef %4, i64 noundef 8192) #30
  br i1 %5, label %6, label %9

6:                                                ; preds = %2
  %7 = load i64, ptr %3, align 8, !tbaa !31
  %8 = inttoptr i64 %7 to ptr
  call void @llvm.memcpy.p0.p0.i64(ptr align 8 %0, ptr align 8 %8, i64 40, i1 false), !tbaa.struct !62
  br label %20

9:                                                ; preds = %2
  %10 = load i64, ptr %3, align 8, !tbaa !31
  %11 = call i64 @RSTRING_LEN(i64 noundef %10) #30
  %12 = getelementptr inbounds nuw %struct.RString, ptr %0, i32 0, i32 1
  store i64 %11, ptr %12, align 8, !tbaa !52
  %13 = load i64, ptr %3, align 8, !tbaa !31
  %14 = inttoptr i64 %13 to ptr
  %15 = getelementptr inbounds nuw %struct.RString, ptr %14, i32 0, i32 2
  %16 = getelementptr inbounds nuw %struct.anon.2, ptr %15, i32 0, i32 0
  %17 = getelementptr inbounds [1 x i8], ptr %16, i64 0, i64 0
  %18 = getelementptr inbounds nuw %struct.RString, ptr %0, i32 0, i32 2
  %19 = getelementptr inbounds nuw %struct.anon.0, ptr %18, i32 0, i32 0
  store ptr %17, ptr %19, align 8, !tbaa !51
  br label %20

20:                                               ; preds = %9, %6
  ret void
}

; Function Attrs: inlinehint nounwind sspstrong uwtable
define internal i32 @RSTRING_LENINT(i64 noundef %0) #5 {
  %2 = alloca i64, align 8
  store i64 %0, ptr %2, align 8, !tbaa !31
  %3 = load i64, ptr %2, align 8, !tbaa !31
  %4 = call i64 @RSTRING_LEN(i64 noundef %3) #30
  %5 = call i32 @rb_long2int_inline(i64 noundef %4)
  ret i32 %5
}

; Function Attrs: inlinehint nounwind sspstrong uwtable
define internal ptr @RSTRING_PTR(i64 noundef %0) #5 {
  %2 = alloca i64, align 8
  %3 = alloca ptr, align 8
  %4 = alloca %struct.RString, align 8
  store i64 %0, ptr %2, align 8, !tbaa !31
  call void @llvm.lifetime.start.p0(i64 8, ptr %3) #24
  %5 = load i64, ptr %2, align 8, !tbaa !31
  call void @rbimpl_rstring_getmem(ptr dead_on_unwind writable sret(%struct.RString) align 8 %4, i64 noundef %5) #29
  %6 = getelementptr inbounds nuw %struct.RString, ptr %4, i32 0, i32 2
  %7 = getelementptr inbounds nuw %struct.anon.0, ptr %6, i32 0, i32 0
  %8 = load ptr, ptr %7, align 8, !tbaa !51
  store ptr %8, ptr %3, align 8, !tbaa !30
  %9 = load ptr, ptr %3, align 8, !tbaa !30
  call void @llvm.lifetime.end.p0(i64 8, ptr %3) #24
  ret ptr %9
}

; Function Attrs: inlinehint nounwind sspstrong willreturn memory(read) uwtable
define internal i64 @RSTRING_LEN(i64 noundef %0) #13 {
  %2 = alloca i64, align 8
  store i64 %0, ptr %2, align 8, !tbaa !31
  %3 = load i64, ptr %2, align 8, !tbaa !31
  %4 = inttoptr i64 %3 to ptr
  %5 = getelementptr inbounds nuw %struct.RString, ptr %4, i32 0, i32 1
  %6 = load i64, ptr %5, align 8, !tbaa !52
  ret i64 %6
}

; Function Attrs: nounwind sspstrong uwtable
define i32 @rsock_unix_sockaddr_len(i64 noundef %0) #0 {
  %2 = alloca i32, align 4
  %3 = alloca i64, align 8
  store i64 %0, ptr %3, align 8, !tbaa !31
  %4 = load i64, ptr %3, align 8, !tbaa !31
  %5 = call i64 @RSTRING_LEN(i64 noundef %4) #30
  %6 = icmp eq i64 %5, 0
  br i1 %6, label %7, label %8

7:                                                ; preds = %1
  store i32 2, ptr %2, align 4
  br label %26

8:                                                ; preds = %1
  %9 = load i64, ptr %3, align 8, !tbaa !31
  %10 = call ptr @RSTRING_PTR(i64 noundef %9)
  %11 = getelementptr inbounds i8, ptr %10, i64 0
  %12 = load i8, ptr %11, align 1, !tbaa !51
  %13 = sext i8 %12 to i32
  %14 = icmp eq i32 %13, 0
  br i1 %14, label %15, label %25

15:                                               ; preds = %8
  %16 = load i64, ptr %3, align 8, !tbaa !31
  %17 = call i64 @RSTRING_LEN(i64 noundef %16) #30
  %18 = icmp ult i64 4294967293, %17
  br i1 %18, label %19, label %21

19:                                               ; preds = %15
  %20 = load i64, ptr @rb_eArgError, align 8, !tbaa !31
  call void (i64, ptr, ...) @rb_raise(i64 noundef %20, ptr noundef @.str.11) #27
  unreachable

21:                                               ; preds = %15
  %22 = load i64, ptr %3, align 8, !tbaa !31
  %23 = call i32 @RSTRING_LENINT(i64 noundef %22)
  %24 = add i32 2, %23
  store i32 %24, ptr %2, align 4
  br label %26

25:                                               ; preds = %8
  store i32 110, ptr %2, align 4
  br label %26

26:                                               ; preds = %25, %21, %7
  %27 = load i32, ptr %2, align 4
  ret i32 %27
}