; Function Attrs: nounwind sspstrong uwtable
define range(i32 2, -2147483646) i32 @rsock_unix_sockaddr_len(i64 noundef %0) local_unnamed_addr #0 {
  %2 = inttoptr i64 %0 to ptr
  %3 = getelementptr inbounds nuw i8, ptr %2, i64 16
  %4 = load i64, ptr %3, align 8, !tbaa !94
  %5 = icmp eq i64 %4, 0
  br i1 %5, label %21, label %6

6:                                                ; preds = %1
  %7 = load i64, ptr %2, align 8, !tbaa !44, !noalias !96
  %8 = and i64 %7, 8192
  %.not.i.i = icmp eq i64 %8, 0
  %9 = getelementptr inbounds nuw i8, ptr %2, i64 24
  br i1 %.not.i.i, label %RSTRING_PTR.exit, label %10

10:                                               ; preds = %6
  %.sroa.2.0.copyload.i = load ptr, ptr %9, align 8
  br label %RSTRING_PTR.exit

RSTRING_PTR.exit:                                 ; preds = %6, %10
  %.sroa.2.0.i = phi ptr [ %.sroa.2.0.copyload.i, %10 ], [ %9, %6 ]
  %11 = load i8, ptr %.sroa.2.0.i, align 1, !tbaa !49
  %12 = icmp eq i8 %11, 0
  br i1 %12, label %13, label %21

13:                                               ; preds = %RSTRING_PTR.exit
  %14 = icmp ugt i64 %4, 4294967293
  br i1 %14, label %15, label %17

15:                                               ; preds = %13
  %16 = load i64, ptr @rb_eArgError, align 8, !tbaa !35
  tail call void (i64, ptr, ...) @rb_raise(i64 noundef %16, ptr noundef nonnull @.str.11) #23
  unreachable

17:                                               ; preds = %13
  %.not.i.i5 = icmp samesign ult i64 %4, 2147483648
  br i1 %.not.i.i5, label %RSTRING_LENINT.exit, label %18

18:                                               ; preds = %17
  tail call void @rb_out_of_int(i64 noundef %4) #26
  unreachable

RSTRING_LENINT.exit:                              ; preds = %17
  %19 = trunc nuw i64 %4 to i32
  %20 = add nuw i32 %19, 2
  br label %21

21:                                               ; preds = %RSTRING_PTR.exit, %1, %RSTRING_LENINT.exit
  %.0 = phi i32 [ %20, %RSTRING_LENINT.exit ], [ 2, %1 ], [ 110, %RSTRING_PTR.exit ]
  ret i32 %.0
}